target datalayout = "e-m:e-p270:32:32-p271:32:32-p272:64:64-i64:64-i128:128-f80:128-n8:16:32:64-S128"
target triple = "x86_64-pc-linux-gnu"

%struct.ec_method_st = type { ptr, ptr, ptr, ptr, ptr, ptr, ptr, ptr, ptr, ptr, ptr }
%struct.ec_group_st = type { ptr, ptr, %struct.bignum_st, %struct.bignum_st, i32, ptr, %struct.bignum_st, %struct.bignum_st, %struct.bignum_st, i32, ptr, %struct.bignum_st }
%struct.bignum_st = type { ptr, i32, i32, i32, i32 }
%struct.ec_point_st = type { ptr, %struct.bignum_st, %struct.bignum_st, %struct.bignum_st }

@.str = private unnamed_addr constant [118 x i8] c"generated/home/dtcxzyw/WorkSpace/Projects/compilers/llvm-opt-benchmark/bench/libquic/libquic/boringssl/crypto/ec/ec.c\00", align 1

; Function Attrs: nounwind uwtable
define hidden void @EC_GROUP_free(ptr noundef %0) #1 {
  %2 = alloca ptr, align 8
  store ptr %0, ptr %2, align 8, !tbaa !13
  %3 = load ptr, ptr %2, align 8, !tbaa !13
  %4 = icmp ne ptr %3, null
  br i1 %4, label %6, label %5

5:                                                ; preds = %1
  br label %29

6:                                                ; preds = %1
  %7 = load ptr, ptr %2, align 8, !tbaa !13
  %8 = getelementptr inbounds nuw %struct.ec_group_st, ptr %7, i32 0, i32 0
  %9 = load ptr, ptr %8, align 8, !tbaa !15
  %10 = getelementptr inbounds nuw %struct.ec_method_st, ptr %9, i32 0, i32 1
  %11 = load ptr, ptr %10, align 8, !tbaa !27
  %12 = icmp ne ptr %11, null
  br i1 %12, label %13, label %20

13:                                               ; preds = %6
  %14 = load ptr, ptr %2, align 8, !tbaa !13
  %15 = getelementptr inbounds nuw %struct.ec_group_st, ptr %14, i32 0, i32 0
  %16 = load ptr, ptr %15, align 8, !tbaa !15
  %17 = getelementptr inbounds nuw %struct.ec_method_st, ptr %16, i32 0, i32 1
  %18 = load ptr, ptr %17, align 8, !tbaa !27
  %19 = load ptr, ptr %2, align 8, !tbaa !13
  call void %18(ptr noundef %19)
  br label %20

20:                                               ; preds = %13, %6
  %21 = load ptr, ptr %2, align 8, !tbaa !13
  %22 = getelementptr inbounds nuw %struct.ec_group_st, ptr %21, i32 0, i32 1
  %23 = load ptr, ptr %22, align 8, !tbaa !28
  call void @EC_POINT_free(ptr noundef %23)
  %24 = load ptr, ptr %2, align 8, !tbaa !13
  %25 = getelementptr inbounds nuw %struct.ec_group_st, ptr %24, i32 0, i32 2
  call void @BN_free(ptr noundef %25)
  %26 = load ptr, ptr %2, align 8, !tbaa !13
  %27 = getelementptr inbounds nuw %struct.ec_group_st, ptr %26, i32 0, i32 3
  call void @BN_free(ptr noundef %27)
  %28 = load ptr, ptr %2, align 8, !tbaa !13
  call void @free(ptr noundef %28) #7
  br label %29

29:                                               ; preds = %20, %5
  ret void
}

; Function Attrs: nounwind uwtable
define hidden void @EC_POINT_free(ptr noundef %0) #1 {
  %2 = alloca ptr, align 8
  store ptr %0, ptr %2, align 8, !tbaa !29
  %3 = load ptr, ptr %2, align 8, !tbaa !29
  %4 = icmp ne ptr %3, null
  br i1 %4, label %6, label %5

5:                                                ; preds = %1
  br label %9

6:                                                ; preds = %1
  %7 = load ptr, ptr %2, align 8, !tbaa !29
  call void @ec_GFp_simple_point_finish(ptr noundef %7)
  %8 = load ptr, ptr %2, align 8, !tbaa !29
  call void @free(ptr noundef %8) #7
  br label %9

9:                                                ; preds = %6, %5
  ret void
}

; Function Attrs: nounwind uwtable
define hidden ptr @EC_POINT_new(ptr noundef %0) #1 {
  %2 = alloca ptr, align 8
  %3 = alloca ptr, align 8
  %4 = alloca ptr, align 8
  %5 = alloca i32, align 4
  store ptr %0, ptr %3, align 8, !tbaa !13
  call void @llvm.lifetime.start.p0(i64 8, ptr %4) #7
  %6 = load ptr, ptr %3, align 8, !tbaa !13
  %7 = icmp eq ptr %6, null
  br i1 %7, label %8, label %9

8:                                                ; preds = %1
  call void @ERR_put_error(i32 noundef 15, i32 noundef 0, i32 noundef 67, ptr noundef @.str, i32 noundef 680)
  store ptr null, ptr %2, align 8
  store i32 1, ptr %5, align 4
  br label %27

9:                                                ; preds = %1
  %10 = call noalias ptr @malloc(i64 noundef 80) #8
  store ptr %10, ptr %4, align 8, !tbaa !29
  %11 = load ptr, ptr %4, align 8, !tbaa !29
  %12 = icmp eq ptr %11, null
  br i1 %12, label %13, label %14

13:                                               ; preds = %9
  call void @ERR_put_error(i32 noundef 15, i32 noundef 0, i32 noundef 65, ptr noundef @.str, i32 noundef 686)
  store ptr null, ptr %2, align 8
  store i32 1, ptr %5, align 4
  br label %27

14:                                               ; preds = %9
  %15 = load ptr, ptr %3, align 8, !tbaa !13
  %16 = getelementptr inbounds nuw %struct.ec_group_st, ptr %15, i32 0, i32 0
  %17 = load ptr, ptr %16, align 8, !tbaa !15
  %18 = load ptr, ptr %4, align 8, !tbaa !29
  %19 = getelementptr inbounds nuw %struct.ec_point_st, ptr %18, i32 0, i32 0
  store ptr %17, ptr %19, align 8, !tbaa !31
  %20 = load ptr, ptr %4, align 8, !tbaa !29
  %21 = call i32 @ec_GFp_simple_point_init(ptr noundef %20)
  %22 = icmp ne i32 %21, 0
  br i1 %22, label %25, label %23

23:                                               ; preds = %14
  %24 = load ptr, ptr %4, align 8, !tbaa !29
  call void @free(ptr noundef %24) #7
  store ptr null, ptr %2, align 8
  store i32 1, ptr %5, align 4
  br label %27

25:                                               ; preds = %14
  %26 = load ptr, ptr %4, align 8, !tbaa !29
  store ptr %26, ptr %2, align 8
  store i32 1, ptr %5, align 4
  br label %27

27:                                               ; preds = %25, %23, %13, %8
  call void @llvm.lifetime.end.p0(i64 8, ptr %4) #7
  %28 = load ptr, ptr %2, align 8
  ret ptr %28
}

; Function Attrs: nounwind uwtable
define hidden ptr @EC_GROUP_new_arbitrary(ptr noundef %0, ptr noundef %1, ptr noundef %2, ptr noundef %3, ptr noundef %4, ptr noundef %5, ptr noundef %6) #1 {
  %8 = alloca ptr, align 8
  %9 = alloca ptr, align 8
  %10 = alloca ptr, align 8
  %11 = alloca ptr, align 8
  %12 = alloca ptr, align 8
  %13 = alloca ptr, align 8
  %14 = alloca ptr, align 8
  %15 = alloca ptr, align 8
  %16 = alloca ptr, align 8
  %17 = alloca i32, align 4
  %18 = alloca ptr, align 8
  %19 = alloca ptr, align 8
  store ptr %0, ptr %9, align 8, !tbaa !22
  store ptr %1, ptr %10, align 8, !tbaa !22
  store ptr %2, ptr %11, align 8, !tbaa !22
  store ptr %3, ptr %12, align 8, !tbaa !22
  store ptr %4, ptr %13, align 8, !tbaa !22
  store ptr %5, ptr %14, align 8, !tbaa !22
  store ptr %6, ptr %15, align 8, !tbaa !22
  call void @llvm.lifetime.start.p0(i64 8, ptr %16) #7
  %20 = call ptr @BN_CTX_new()
  store ptr %20, ptr %16, align 8, !tbaa !24
  %21 = load ptr, ptr %16, align 8, !tbaa !24
  %22 = icmp eq ptr %21, null
  br i1 %22, label %23, label %24

23:                                               ; preds = %7
  store ptr null, ptr %8, align 8
  store i32 1, ptr %17, align 4
  br label %63

24:                                               ; preds = %7
  call void @llvm.lifetime.start.p0(i64 8, ptr %18) #7
  store ptr null, ptr %18, align 8, !tbaa !29
  call void @llvm.lifetime.start.p0(i64 8, ptr %19) #7
  %25 = load ptr, ptr %9, align 8, !tbaa !22
  %26 = load ptr, ptr %10, align 8, !tbaa !22
  %27 = load ptr, ptr %11, align 8, !tbaa !22
  %28 = load ptr, ptr %16, align 8, !tbaa !24
  %29 = call ptr @EC_GROUP_new_curve_GFp(ptr noundef %25, ptr noundef %26, ptr noundef %27, ptr noundef %28)
  store ptr %29, ptr %19, align 8, !tbaa !13
  %30 = load ptr, ptr %19, align 8, !tbaa !13
  %31 = icmp eq ptr %30, null
  br i1 %31, label %32, label %33

32:                                               ; preds = %24
  br label %58

33:                                               ; preds = %24
  %34 = load ptr, ptr %19, align 8, !tbaa !13
  %35 = call ptr @EC_POINT_new(ptr noundef %34)
  store ptr %35, ptr %18, align 8, !tbaa !29
  %36 = load ptr, ptr %18, align 8, !tbaa !29
  %37 = icmp eq ptr %36, null
  br i1 %37, label %53, label %38

38:                                               ; preds = %33
  %39 = load ptr, ptr %19, align 8, !tbaa !13
  %40 = load ptr, ptr %18, align 8, !tbaa !29
  %41 = load ptr, ptr %12, align 8, !tbaa !22
  %42 = load ptr, ptr %13, align 8, !tbaa !22
  %43 = load ptr, ptr %16, align 8, !tbaa !24
  %44 = call i32 @EC_POINT_set_affine_coordinates_GFp(ptr noundef %39, ptr noundef %40, ptr noundef %41, ptr noundef %42, ptr noundef %43)
  %45 = icmp ne i32 %44, 0
  br i1 %45, label %46, label %53

46:                                               ; preds = %38
  %47 = load ptr, ptr %19, align 8, !tbaa !13
  %48 = load ptr, ptr %18, align 8, !tbaa !29
  %49 = load ptr, ptr %14, align 8, !tbaa !22
  %50 = load ptr, ptr %15, align 8, !tbaa !22
  %51 = call i32 @EC_GROUP_set_generator(ptr noundef %47, ptr noundef %48, ptr noundef %49, ptr noundef %50)
  %52 = icmp ne i32 %51, 0
  br i1 %52, label %54, label %53

53:                                               ; preds = %46, %38, %33
  br label %58

54:                                               ; preds = %46
  %55 = load ptr, ptr %18, align 8, !tbaa !29
  call void @EC_POINT_free(ptr noundef %55)
  %56 = load ptr, ptr %16, align 8, !tbaa !24
  call void @BN_CTX_free(ptr noundef %56)
  %57 = load ptr, ptr %19, align 8, !tbaa !13
  store ptr %57, ptr %8, align 8
  store i32 1, ptr %17, align 4
  br label %62

58:                                               ; preds = %53, %32
  %59 = load ptr, ptr %18, align 8, !tbaa !29
  call void @EC_POINT_free(ptr noundef %59)
  %60 = load ptr, ptr %19, align 8, !tbaa !13
  call void @EC_GROUP_free(ptr noundef %60)
  %61 = load ptr, ptr %16, align 8, !tbaa !24
  call void @BN_CTX_free(ptr noundef %61)
  store ptr null, ptr %8, align 8
  store i32 1, ptr %17, align 4
  br label %62

62:                                               ; preds = %58, %54
  call void @llvm.lifetime.end.p0(i64 8, ptr %19) #7
  call void @llvm.lifetime.end.p0(i64 8, ptr %18) #7
  br label %63

63:                                               ; preds = %62, %23
  call void @llvm.lifetime.end.p0(i64 8, ptr %16) #7
  %64 = load ptr, ptr %8, align 8
  ret ptr %64
}