; Function Attrs: nounwind uwtable
define hidden noundef ptr @EC_GROUP_new_arbitrary(ptr noundef %0, ptr noundef %1, ptr noundef %2, ptr noundef %3, ptr noundef %4, ptr noundef %5, ptr noundef %6) local_unnamed_addr #1 {
  %8 = tail call ptr @BN_CTX_new() #11
  %9 = icmp eq ptr %8, null
  br i1 %9, label %34, label %10

10:                                               ; preds = %7
  %11 = tail call ptr @EC_GROUP_new_curve_GFp(ptr noundef %0, ptr noundef %1, ptr noundef %2, ptr noundef nonnull %8)
  %12 = icmp eq ptr %11, null
  br i1 %12, label %.sink.split, label %13

13:                                               ; preds = %10
  %14 = tail call noalias dereferenceable_or_null(80) ptr @malloc(i64 noundef 80) #12
  %15 = icmp eq ptr %14, null
  br i1 %15, label %16, label %17

16:                                               ; preds = %13
  tail call void @ERR_put_error(i32 noundef 15, i32 noundef 0, i32 noundef 65, ptr noundef nonnull @.str, i32 noundef 686) #11
  br label %EC_POINT_free.exit32

17:                                               ; preds = %13
  %18 = load ptr, ptr %11, align 8, !tbaa !11
  store ptr %18, ptr %14, align 8, !tbaa !23
  %19 = tail call i32 @ec_GFp_simple_point_init(ptr noundef nonnull %14) #11
  %.not.i = icmp eq i32 %19, 0
  br i1 %.not.i, label %20, label %EC_POINT_new.exit

20:                                               ; preds = %17
  tail call void @free(ptr noundef nonnull %14) #11
  br label %EC_POINT_free.exit32

EC_POINT_new.exit:                                ; preds = %17
  %21 = tail call i32 @EC_POINT_set_affine_coordinates_GFp(ptr noundef nonnull %11, ptr noundef nonnull %14, ptr noundef %3, ptr noundef %4, ptr noundef nonnull %8)
  %.not = icmp eq i32 %21, 0
  br i1 %.not, label %EC_POINT_free.exit32.thread, label %22

22:                                               ; preds = %EC_POINT_new.exit
  %23 = tail call i32 @EC_GROUP_set_generator(ptr noundef nonnull %11, ptr noundef nonnull %14, ptr noundef %5, ptr noundef %6)
  %.not29 = icmp eq i32 %23, 0
  br i1 %.not29, label %EC_POINT_free.exit32.thread, label %EC_POINT_free.exit

EC_POINT_free.exit:                               ; preds = %22
  tail call void @ec_GFp_simple_point_finish(ptr noundef nonnull %14) #11
  br label %.sink.split.sink.split

EC_POINT_free.exit32.thread:                      ; preds = %EC_POINT_new.exit, %22
  tail call void @ec_GFp_simple_point_finish(ptr noundef nonnull %14) #11
  tail call void @free(ptr noundef nonnull %14) #11
  br label %EC_POINT_free.exit32

EC_POINT_free.exit32:                             ; preds = %20, %16, %EC_POINT_free.exit32.thread
  %24 = load ptr, ptr %11, align 8, !tbaa !11
  %25 = getelementptr inbounds nuw i8, ptr %24, i64 8
  %26 = load ptr, ptr %25, align 8, !tbaa !20
  %.not9.i = icmp eq ptr %26, null
  br i1 %.not9.i, label %28, label %27

27:                                               ; preds = %EC_POINT_free.exit32
  tail call void %26(ptr noundef nonnull %11) #11
  br label %28

28:                                               ; preds = %27, %EC_POINT_free.exit32
  %29 = getelementptr inbounds nuw i8, ptr %11, i64 8
  %30 = load ptr, ptr %29, align 8, !tbaa !21
  %.not.i.i = icmp eq ptr %30, null
  br i1 %.not.i.i, label %EC_POINT_free.exit.i, label %31

31:                                               ; preds = %28
  tail call void @ec_GFp_simple_point_finish(ptr noundef nonnull %30) #11
  tail call void @free(ptr noundef nonnull %30) #11
  br label %EC_POINT_free.exit.i

EC_POINT_free.exit.i:                             ; preds = %31, %28
  %32 = getelementptr inbounds nuw i8, ptr %11, i64 16
  tail call void @BN_free(ptr noundef nonnull %32) #11
  %33 = getelementptr inbounds nuw i8, ptr %11, i64 40
  tail call void @BN_free(ptr noundef nonnull %33) #11
  br label %.sink.split.sink.split

.sink.split.sink.split:                           ; preds = %EC_POINT_free.exit, %EC_POINT_free.exit.i
  %.sink = phi ptr [ %11, %EC_POINT_free.exit.i ], [ %14, %EC_POINT_free.exit ]
  %.0.ph.ph = phi ptr [ null, %EC_POINT_free.exit.i ], [ %11, %EC_POINT_free.exit ]
  tail call void @free(ptr noundef nonnull %.sink) #11
  br label %.sink.split

.sink.split:                                      ; preds = %.sink.split.sink.split, %10
  %.0.ph = phi ptr [ null, %10 ], [ %.0.ph.ph, %.sink.split.sink.split ]
  tail call void @BN_CTX_free(ptr noundef nonnull %8) #11
  br label %34

34:                                               ; preds = %.sink.split, %7
  %.0 = phi ptr [ null, %7 ], [ %.0.ph, %.sink.split ]
  ret ptr %.0
}